ccollections
defaultdict
p1
(c__builtin__
list
p2
tRp3
S'Shapes'
p4
(lp5
(S'PearlNecklaceModel'
p6
I01
tp7
a(S'HollowCylinderModel'
p8
I01
tp9
a(S'CoreMultiShellModel'
p10
I01
tp11
a(S'FCCrystalModel'
p12
I01
tp13
a(S'FuzzySphereModel'
p14
I01
tp15
a(S'CSParallelepipedModel'
p16
I01
tp17
a(S'EllipticalCylinderModel'
p18
I01
tp19
a(S'BCCrystalModel'
p20
I01
tp21
a(S'LamellarFFHGModel'
p22
I01
tp23
a(S'LamellarPCrystalModel'
p24
I01
tp25
a(S'OnionExpShellModel'
p26
I01
tp27
a(S'VesicleModel'
p28
I01
tp29
a(S'MultiShellModel'
p30
I01
tp31
a(S'RaspBerryModel'
p32
I01
tp33
a(S'CoreShellEllipsoidModel'
p34
I01
tp35
a(S'CappedCylinderModel'
p36
I01
tp37
a(S'CylinderModel'
p38
I01
tp39
a(S'SphericalSLDModel'
p40
I01
tp41
a(S'StackedDisksModel'
p42
I01
tp43
a(S'LamellarPSHGModel'
p44
I01
tp45
a(S'CoreShellBicelleModel'
p46
I01
tp47
a(S'LamellarPSModel'
p48
I01
tp49
a(S'EllipsoidModel'
p50
I01
tp51
a(S'SphereModel'
p52
I01
tp53
a(S'ParallelepipedModel'
p54
I01
tp55
a(S'TriaxialEllipsoidModel'
p56
I01
tp57
a(S'LamellarModel'
p58
I01
tp59
a(S'BarBellModel'
p60
I01
tp61
a(S'CoreShellCylinderModel'
p62
I01
tp63
a(S'BinaryHSModel'
p64
I01
tp65
a(S'FlexibleCylinderModel'
p66
I01
tp67
a(S'SCCrystalModel'
p68
I01
tp69
a(S'FlexCylEllipXModel'
p70
I01
tp71
a(S'LinearPearlsModel'
p72
I01
tp73
a(S'CoreShellModel'
p74
I01
tp75
asS'Structure Factor'
p76
(lp77
(S'SquareWellStructure'
p78
I01
tp79
a(S'HayterMSAStructure'
p80
I01
tp81
a(S'HardsphereStructure'
p82
I01
tp83
a(S'StickyHSStructure'
p84
I01
tp85
asS'Shape-Independent'
p86
(lp87
(S'TwoPowerLawModel'
p88
I01
tp89
a(S'GelFitModel'
p90
I01
tp91
a(S'DABModel'
p92
I01
tp93
a(S'PowerLawAbsModel'
p94
I01
tp95
a(S'PorodModel'
p96
I01
tp97
a(S'MassFractalModel'
p98
I01
tp99
a(S'TeubnerStreyModel'
p100
I01
tp101
a(S'BEPolyelectrolyte'
p102
I01
tp103
a(S'DebyeModel'
p104
I01
tp105
a(S'MassSurfaceFractal'
p106
I01
tp107
a(S'Core2ndMomentModel'
p108
I01
tp109
a(S'RPA10Model'
p110
I01
tp111
a(S'TwoLorentzianModel'
p112
I01
tp113
a(S'UnifiedPowerRgModel'
p114
I01
tp115
a(S'PolymerExclVolume'
p116
I01
tp117
a(S'GuinierModel'
p118
I01
tp119
a(S'GuinierPorodModel'
p120
I01
tp121
a(S'CorrLengthModel'
p122
I01
tp123
a(S'StarPolymer'
p124
I01
tp125
a(S'FractalModel'
p126
I01
tp127
a(S'ReflectivityModel'
p128
I01
tp129
a(S'PeakLorentzModel'
p130
I01
tp131
a(S'BroadPeakModel'
p132
I01
tp133
a(S'ReflectivityIIModel'
p134
I01
tp135
a(S'PeakGaussModel'
p136
I01
tp137
a(S'FractalCoreShellModel'
p138
I01
tp139
a(S'Poly_GaussCoil'
p140
I01
tp141
a(S'SurfaceFractalModel'
p142
I01
tp143
a(S'GaussLorentzGelModel'
p144
I01
tp145
a(S'LorentzModel'
p146
I01
tp147
asS'Uncategorized'
p148
(lp149
(S'PringlesModel'
p150
I01
tp151
a(S'LineModel'
p152
I01
tp153
as.